target datalayout = "e-m:e-p270:32:32-p271:32:32-p272:64:64-i64:64-i128:128-f80:128-n8:16:32:64-S128"
target triple = "x86_64-pc-linux-gnu"

%struct.ZSTD_matchState_t = type { %struct.ZSTD_window_t, i32, i32, i32, i32, ptr, [8 x i32], i64, i32, ptr, ptr, ptr, i32, i32, %struct.optState_t, ptr, %struct.ZSTD_compressionParameters, ptr, i32, i32 }
%struct.ZSTD_window_t = type { ptr, ptr, ptr, i32, i32, i32 }
%struct.optState_t = type { ptr, ptr, ptr, ptr, ptr, ptr, i32, i32, i32, i32, i32, i32, i32, i32, i32, ptr, i32 }
%struct.ZSTD_compressionParameters = type { i32, i32, i32, i32, i32, i32, i32 }

; Function Attrs: nounwind uwtable
define internal i64 @ZSTD_compressBlock_doubleFast_extDict_7(ptr noundef %0, ptr noundef %1, ptr noundef %2, ptr noundef %3, i64 noundef %4) #0 {
  %6 = alloca ptr, align 8
  %7 = alloca ptr, align 8
  %8 = alloca ptr, align 8
  %9 = alloca ptr, align 8
  %10 = alloca i64, align 8
  store ptr %0, ptr %6, align 8, !tbaa !4
  store ptr %1, ptr %7, align 8, !tbaa !9
  store ptr %2, ptr %8, align 8, !tbaa !20
  store ptr %3, ptr %9, align 8, !tbaa !9
  store i64 %4, ptr %10, align 8, !tbaa !28
  %11 = load ptr, ptr %6, align 8, !tbaa !4
  %12 = load ptr, ptr %7, align 8, !tbaa !9
  %13 = load ptr, ptr %8, align 8, !tbaa !20
  %14 = load ptr, ptr %9, align 8, !tbaa !9
  %15 = load i64, ptr %10, align 8, !tbaa !28
  %16 = call i64 @ZSTD_compressBlock_doubleFast_extDict_generic(ptr noundef %11, ptr noundef %12, ptr noundef %13, ptr noundef %14, i64 noundef %15, i32 noundef 7)
  ret i64 %16
}

; Function Attrs: nounwind uwtable
define internal i64 @ZSTD_compressBlock_doubleFast_extDict_6(ptr noundef %0, ptr noundef %1, ptr noundef %2, ptr noundef %3, i64 noundef %4) #0 {
  %6 = alloca ptr, align 8
  %7 = alloca ptr, align 8
  %8 = alloca ptr, align 8
  %9 = alloca ptr, align 8
  %10 = alloca i64, align 8
  store ptr %0, ptr %6, align 8, !tbaa !4
  store ptr %1, ptr %7, align 8, !tbaa !9
  store ptr %2, ptr %8, align 8, !tbaa !20
  store ptr %3, ptr %9, align 8, !tbaa !9
  store i64 %4, ptr %10, align 8, !tbaa !28
  %11 = load ptr, ptr %6, align 8, !tbaa !4
  %12 = load ptr, ptr %7, align 8, !tbaa !9
  %13 = load ptr, ptr %8, align 8, !tbaa !20
  %14 = load ptr, ptr %9, align 8, !tbaa !9
  %15 = load i64, ptr %10, align 8, !tbaa !28
  %16 = call i64 @ZSTD_compressBlock_doubleFast_extDict_generic(ptr noundef %11, ptr noundef %12, ptr noundef %13, ptr noundef %14, i64 noundef %15, i32 noundef 6)
  ret i64 %16
}

; Function Attrs: nounwind uwtable
define internal i64 @ZSTD_compressBlock_doubleFast_extDict_5(ptr noundef %0, ptr noundef %1, ptr noundef %2, ptr noundef %3, i64 noundef %4) #0 {
  %6 = alloca ptr, align 8
  %7 = alloca ptr, align 8
  %8 = alloca ptr, align 8
  %9 = alloca ptr, align 8
  %10 = alloca i64, align 8
  store ptr %0, ptr %6, align 8, !tbaa !4
  store ptr %1, ptr %7, align 8, !tbaa !9
  store ptr %2, ptr %8, align 8, !tbaa !20
  store ptr %3, ptr %9, align 8, !tbaa !9
  store i64 %4, ptr %10, align 8, !tbaa !28
  %11 = load ptr, ptr %6, align 8, !tbaa !4
  %12 = load ptr, ptr %7, align 8, !tbaa !9
  %13 = load ptr, ptr %8, align 8, !tbaa !20
  %14 = load ptr, ptr %9, align 8, !tbaa !9
  %15 = load i64, ptr %10, align 8, !tbaa !28
  %16 = call i64 @ZSTD_compressBlock_doubleFast_extDict_generic(ptr noundef %11, ptr noundef %12, ptr noundef %13, ptr noundef %14, i64 noundef %15, i32 noundef 5)
  ret i64 %16
}

; Function Attrs: nounwind uwtable
define internal i64 @ZSTD_compressBlock_doubleFast_extDict_4(ptr noundef %0, ptr noundef %1, ptr noundef %2, ptr noundef %3, i64 noundef %4) #0 {
  %6 = alloca ptr, align 8
  %7 = alloca ptr, align 8
  %8 = alloca ptr, align 8
  %9 = alloca ptr, align 8
  %10 = alloca i64, align 8
  store ptr %0, ptr %6, align 8, !tbaa !4
  store ptr %1, ptr %7, align 8, !tbaa !9
  store ptr %2, ptr %8, align 8, !tbaa !20
  store ptr %3, ptr %9, align 8, !tbaa !9
  store i64 %4, ptr %10, align 8, !tbaa !28
  %11 = load ptr, ptr %6, align 8, !tbaa !4
  %12 = load ptr, ptr %7, align 8, !tbaa !9
  %13 = load ptr, ptr %8, align 8, !tbaa !20
  %14 = load ptr, ptr %9, align 8, !tbaa !9
  %15 = load i64, ptr %10, align 8, !tbaa !28
  %16 = call i64 @ZSTD_compressBlock_doubleFast_extDict_generic(ptr noundef %11, ptr noundef %12, ptr noundef %13, ptr noundef %14, i64 noundef %15, i32 noundef 4)
  ret i64 %16
}

; Function Attrs: nounwind uwtable
define dso_local i64 @ZSTD_compressBlock_doubleFast_extDict(ptr noundef %0, ptr noundef %1, ptr noundef %2, ptr noundef %3, i64 noundef %4) #0 {
  %6 = alloca i64, align 8
  %7 = alloca ptr, align 8
  %8 = alloca ptr, align 8
  %9 = alloca ptr, align 8
  %10 = alloca ptr, align 8
  %11 = alloca i64, align 8
  %12 = alloca i32, align 4
  %13 = alloca i32, align 4
  store ptr %0, ptr %7, align 8, !tbaa !4
  store ptr %1, ptr %8, align 8, !tbaa !9
  store ptr %2, ptr %9, align 8, !tbaa !20
  store ptr %3, ptr %10, align 8, !tbaa !9
  store i64 %4, ptr %11, align 8, !tbaa !28
  call void @llvm.lifetime.start.p0(i64 4, ptr %12) #9
  %14 = load ptr, ptr %7, align 8, !tbaa !4
  %15 = getelementptr inbounds nuw %struct.ZSTD_matchState_t, ptr %14, i32 0, i32 16
  %16 = getelementptr inbounds nuw %struct.ZSTD_compressionParameters, ptr %15, i32 0, i32 4
  %17 = load i32, ptr %16, align 8, !tbaa !34
  store i32 %17, ptr %12, align 4, !tbaa !10
  %18 = load i32, ptr %12, align 4, !tbaa !10
  switch i32 %18, label %19 [
    i32 4, label %20
    i32 5, label %27
    i32 6, label %34
    i32 7, label %41
  ]

19:                                               ; preds = %5
  br label %20

20:                                               ; preds = %5, %19
  %21 = load ptr, ptr %7, align 8, !tbaa !4
  %22 = load ptr, ptr %8, align 8, !tbaa !9
  %23 = load ptr, ptr %9, align 8, !tbaa !20
  %24 = load ptr, ptr %10, align 8, !tbaa !9
  %25 = load i64, ptr %11, align 8, !tbaa !28
  %26 = call i64 @ZSTD_compressBlock_doubleFast_extDict_4(ptr noundef %21, ptr noundef %22, ptr noundef %23, ptr noundef %24, i64 noundef %25)
  store i64 %26, ptr %6, align 8
  store i32 1, ptr %13, align 4
  br label %48

27:                                               ; preds = %5
  %28 = load ptr, ptr %7, align 8, !tbaa !4
  %29 = load ptr, ptr %8, align 8, !tbaa !9
  %30 = load ptr, ptr %9, align 8, !tbaa !20
  %31 = load ptr, ptr %10, align 8, !tbaa !9
  %32 = load i64, ptr %11, align 8, !tbaa !28
  %33 = call i64 @ZSTD_compressBlock_doubleFast_extDict_5(ptr noundef %28, ptr noundef %29, ptr noundef %30, ptr noundef %31, i64 noundef %32)
  store i64 %33, ptr %6, align 8
  store i32 1, ptr %13, align 4
  br label %48

34:                                               ; preds = %5
  %35 = load ptr, ptr %7, align 8, !tbaa !4
  %36 = load ptr, ptr %8, align 8, !tbaa !9
  %37 = load ptr, ptr %9, align 8, !tbaa !20
  %38 = load ptr, ptr %10, align 8, !tbaa !9
  %39 = load i64, ptr %11, align 8, !tbaa !28
  %40 = call i64 @ZSTD_compressBlock_doubleFast_extDict_6(ptr noundef %35, ptr noundef %36, ptr noundef %37, ptr noundef %38, i64 noundef %39)
  store i64 %40, ptr %6, align 8
  store i32 1, ptr %13, align 4
  br label %48

41:                                               ; preds = %5
  %42 = load ptr, ptr %7, align 8, !tbaa !4
  %43 = load ptr, ptr %8, align 8, !tbaa !9
  %44 = load ptr, ptr %9, align 8, !tbaa !20
  %45 = load ptr, ptr %10, align 8, !tbaa !9
  %46 = load i64, ptr %11, align 8, !tbaa !28
  %47 = call i64 @ZSTD_compressBlock_doubleFast_extDict_7(ptr noundef %42, ptr noundef %43, ptr noundef %44, ptr noundef %45, i64 noundef %46)
  store i64 %47, ptr %6, align 8
  store i32 1, ptr %13, align 4
  br label %48

48:                                               ; preds = %41, %34, %27, %20
  call void @llvm.lifetime.end.p0(i64 4, ptr %12) #9
  %49 = load i64, ptr %6, align 8
  ret i64 %49
}